target datalayout = "e-m:e-p270:32:32-p271:32:32-p272:64:64-i64:64-i128:128-f80:128-n8:16:32:64-S128"
target triple = "x86_64-pc-linux-gnu"

%struct.IDAMemRec = type { double, ptr, ptr, i32, double, double, ptr, i32, ptr, ptr, i32, ptr, ptr, i32, i32, double, double, ptr, i32, i32, i32, ptr, ptr, i32, ptr, ptr, ptr, i32, double, i32, i32, double, ptr, ptr, i32, ptr, ptr, i32, i32, i32, double, ptr, ptr, [6 x ptr], [6 x double], [6 x double], [6 x double], [6 x double], [6 x double], ptr, ptr, ptr, ptr, ptr, ptr, ptr, ptr, ptr, ptr, ptr, ptr, ptr, ptr, ptr, [6 x ptr], ptr, ptr, ptr, ptr, [6 x ptr], ptr, ptr, ptr, ptr, ptr, ptr, ptr, ptr, ptr, ptr, ptr, ptr, ptr, ptr, [6 x ptr], ptr, ptr, ptr, ptr, ptr, double, ptr, ptr, i32, i32, i32, i32, i32, i32, i32, double, double, double, i32, double, i32, i32, i32, i32, double, double, double, double, double, double, double, double, double, double, double, double, double, double, i32, i32, i32, i32, i32, i64, double, i32, i64, i64, i64, i64, i64, i64, i64, i64, i64, i64, i64, i64, i64, i64, i64, i64, i64, i64, i64, i64, i64, i64, i64, i64, ptr, ptr, ptr, i32, i32, i32, i32, i32, i32, i32, i32, i32, i32, i32, i32, i32, ptr, ptr, ptr, ptr, ptr, ptr, i32, i32, i32, i32, i32, i32, double, double, double, ptr, i32, ptr, ptr, double, double, double, ptr, ptr, ptr, double, double, i32, i32, i64, ptr, i32, i32, ptr, i32 }
%struct.IDAadjMemRec = type { double, double, i32, i32, double, ptr, i32, ptr, i32, ptr, ptr, i32, i64, ptr, i64, i32, ptr, ptr, ptr, ptr, i32, i32, i32, i32, i32, [6 x ptr], [6 x ptr], [6 x double], ptr, ptr, ptr, ptr, i64 }
%struct.IDABMemRec = type { i32, double, ptr, i32, i32, ptr, ptr, ptr, ptr, ptr, ptr, ptr, ptr, ptr, double, ptr, ptr, ptr }
%struct.IDASpilsMemRecB = type { ptr, ptr, ptr, ptr, ptr, ptr, ptr }

@.str = private unnamed_addr constant [10 x i8] c"IDASSPILS\00", align 1
@.str.43 = private unnamed_addr constant [25 x i8] c"Bad t for interpolation.\00", align 1
@.str.48 = private unnamed_addr constant [23 x i8] c"IDAAspilsJacTimesVecBS\00", align 1

; Function Attrs: nounwind uwtable
define internal i32 @IDAAspilsJacTimesVecBS(double noundef %0, ptr noundef %1, ptr noundef %2, ptr noundef %3, ptr noundef %4, ptr noundef %5, double noundef %6, ptr noundef %7, ptr noundef %8, ptr noundef %9) #0 {
  %11 = alloca i32, align 4
  %12 = alloca double, align 8
  %13 = alloca ptr, align 8
  %14 = alloca ptr, align 8
  %15 = alloca ptr, align 8
  %16 = alloca ptr, align 8
  %17 = alloca ptr, align 8
  %18 = alloca double, align 8
  %19 = alloca ptr, align 8
  %20 = alloca ptr, align 8
  %21 = alloca ptr, align 8
  %22 = alloca ptr, align 8
  %23 = alloca ptr, align 8
  %24 = alloca ptr, align 8
  %25 = alloca ptr, align 8
  %26 = alloca i32, align 4
  %27 = alloca i32, align 4
  store double %0, ptr %12, align 8, !tbaa !28
  store ptr %1, ptr %13, align 8, !tbaa !49
  store ptr %2, ptr %14, align 8, !tbaa !49
  store ptr %3, ptr %15, align 8, !tbaa !49
  store ptr %4, ptr %16, align 8, !tbaa !49
  store ptr %5, ptr %17, align 8, !tbaa !49
  store double %6, ptr %18, align 8, !tbaa !28
  store ptr %7, ptr %19, align 8, !tbaa !3
  store ptr %8, ptr %20, align 8, !tbaa !49
  store ptr %9, ptr %21, align 8, !tbaa !49
  call void @llvm.lifetime.start.p0(i64 8, ptr %22) #5
  call void @llvm.lifetime.start.p0(i64 8, ptr %23) #5
  call void @llvm.lifetime.start.p0(i64 8, ptr %24) #5
  call void @llvm.lifetime.start.p0(i64 8, ptr %25) #5
  call void @llvm.lifetime.start.p0(i64 4, ptr %26) #5
  %28 = load ptr, ptr %19, align 8, !tbaa !3
  store ptr %28, ptr %22, align 8, !tbaa !9
  %29 = load ptr, ptr %22, align 8, !tbaa !9
  %30 = getelementptr inbounds nuw %struct.IDAMemRec, ptr %29, i32 0, i32 204
  %31 = load ptr, ptr %30, align 8, !tbaa !67
  store ptr %31, ptr %23, align 8, !tbaa !68
  %32 = load ptr, ptr %23, align 8, !tbaa !68
  %33 = getelementptr inbounds nuw %struct.IDAadjMemRec, ptr %32, i32 0, i32 7
  %34 = load ptr, ptr %33, align 8, !tbaa !92
  store ptr %34, ptr %25, align 8, !tbaa !75
  %35 = load ptr, ptr %25, align 8, !tbaa !75
  %36 = getelementptr inbounds nuw %struct.IDABMemRec, ptr %35, i32 0, i32 10
  %37 = load ptr, ptr %36, align 8, !tbaa !86
  store ptr %37, ptr %24, align 8, !tbaa !87
  %38 = load ptr, ptr %23, align 8, !tbaa !68
  %39 = getelementptr inbounds nuw %struct.IDAadjMemRec, ptr %38, i32 0, i32 24
  %40 = load i32, ptr %39, align 8, !tbaa !93
  %41 = icmp eq i32 %40, 0
  br i1 %41, label %42, label %87

42:                                               ; preds = %10
  %43 = load ptr, ptr %23, align 8, !tbaa !68
  %44 = getelementptr inbounds nuw %struct.IDAadjMemRec, ptr %43, i32 0, i32 23
  %45 = load i32, ptr %44, align 4, !tbaa !101
  %46 = icmp ne i32 %45, 0
  br i1 %46, label %47, label %66

47:                                               ; preds = %42
  %48 = load ptr, ptr %23, align 8, !tbaa !68
  %49 = getelementptr inbounds nuw %struct.IDAadjMemRec, ptr %48, i32 0, i32 17
  %50 = load ptr, ptr %49, align 8, !tbaa !94
  %51 = load ptr, ptr %22, align 8, !tbaa !9
  %52 = load double, ptr %12, align 8, !tbaa !28
  %53 = load ptr, ptr %23, align 8, !tbaa !68
  %54 = getelementptr inbounds nuw %struct.IDAadjMemRec, ptr %53, i32 0, i32 28
  %55 = load ptr, ptr %54, align 8, !tbaa !95
  %56 = load ptr, ptr %23, align 8, !tbaa !68
  %57 = getelementptr inbounds nuw %struct.IDAadjMemRec, ptr %56, i32 0, i32 29
  %58 = load ptr, ptr %57, align 8, !tbaa !96
  %59 = load ptr, ptr %23, align 8, !tbaa !68
  %60 = getelementptr inbounds nuw %struct.IDAadjMemRec, ptr %59, i32 0, i32 30
  %61 = load ptr, ptr %60, align 8, !tbaa !102
  %62 = load ptr, ptr %23, align 8, !tbaa !68
  %63 = getelementptr inbounds nuw %struct.IDAadjMemRec, ptr %62, i32 0, i32 31
  %64 = load ptr, ptr %63, align 8, !tbaa !103
  %65 = call i32 %50(ptr noundef %51, double noundef %52, ptr noundef %55, ptr noundef %58, ptr noundef %61, ptr noundef %64)
  store i32 %65, ptr %26, align 4, !tbaa !7
  br label %79

66:                                               ; preds = %42
  %67 = load ptr, ptr %23, align 8, !tbaa !68
  %68 = getelementptr inbounds nuw %struct.IDAadjMemRec, ptr %67, i32 0, i32 17
  %69 = load ptr, ptr %68, align 8, !tbaa !94
  %70 = load ptr, ptr %22, align 8, !tbaa !9
  %71 = load double, ptr %12, align 8, !tbaa !28
  %72 = load ptr, ptr %23, align 8, !tbaa !68
  %73 = getelementptr inbounds nuw %struct.IDAadjMemRec, ptr %72, i32 0, i32 28
  %74 = load ptr, ptr %73, align 8, !tbaa !95
  %75 = load ptr, ptr %23, align 8, !tbaa !68
  %76 = getelementptr inbounds nuw %struct.IDAadjMemRec, ptr %75, i32 0, i32 29
  %77 = load ptr, ptr %76, align 8, !tbaa !96
  %78 = call i32 %69(ptr noundef %70, double noundef %71, ptr noundef %74, ptr noundef %77, ptr noundef null, ptr noundef null)
  store i32 %78, ptr %26, align 4, !tbaa !7
  br label %79

79:                                               ; preds = %66, %47
  %80 = load i32, ptr %26, align 4, !tbaa !7
  %81 = icmp ne i32 %80, 0
  br i1 %81, label %82, label %86

82:                                               ; preds = %79
  %83 = load ptr, ptr %25, align 8, !tbaa !75
  %84 = getelementptr inbounds nuw %struct.IDABMemRec, ptr %83, i32 0, i32 2
  %85 = load ptr, ptr %84, align 8, !tbaa !80
  call void (ptr, i32, ptr, ptr, ptr, ...) @IDAProcessError(ptr noundef %85, i32 noundef -1, ptr noundef @.str, ptr noundef @.str.48, ptr noundef @.str.43)
  store i32 -1, ptr %11, align 4
  store i32 1, ptr %27, align 4
  br label %117

86:                                               ; preds = %79
  br label %87

87:                                               ; preds = %86, %10
  %88 = load ptr, ptr %24, align 8, !tbaa !87
  %89 = getelementptr inbounds nuw %struct.IDASpilsMemRecB, ptr %88, i32 0, i32 1
  %90 = load ptr, ptr %89, align 8, !tbaa !107
  %91 = load double, ptr %12, align 8, !tbaa !28
  %92 = load ptr, ptr %23, align 8, !tbaa !68
  %93 = getelementptr inbounds nuw %struct.IDAadjMemRec, ptr %92, i32 0, i32 28
  %94 = load ptr, ptr %93, align 8, !tbaa !95
  %95 = load ptr, ptr %23, align 8, !tbaa !68
  %96 = getelementptr inbounds nuw %struct.IDAadjMemRec, ptr %95, i32 0, i32 29
  %97 = load ptr, ptr %96, align 8, !tbaa !96
  %98 = load ptr, ptr %23, align 8, !tbaa !68
  %99 = getelementptr inbounds nuw %struct.IDAadjMemRec, ptr %98, i32 0, i32 30
  %100 = load ptr, ptr %99, align 8, !tbaa !102
  %101 = load ptr, ptr %23, align 8, !tbaa !68
  %102 = getelementptr inbounds nuw %struct.IDAadjMemRec, ptr %101, i32 0, i32 31
  %103 = load ptr, ptr %102, align 8, !tbaa !103
  %104 = load ptr, ptr %13, align 8, !tbaa !49
  %105 = load ptr, ptr %14, align 8, !tbaa !49
  %106 = load ptr, ptr %15, align 8, !tbaa !49
  %107 = load ptr, ptr %16, align 8, !tbaa !49
  %108 = load ptr, ptr %17, align 8, !tbaa !49
  %109 = load double, ptr %18, align 8, !tbaa !28
  %110 = load ptr, ptr %25, align 8, !tbaa !75
  %111 = getelementptr inbounds nuw %struct.IDABMemRec, ptr %110, i32 0, i32 9
  %112 = load ptr, ptr %111, align 8, !tbaa !97
  %113 = load ptr, ptr %20, align 8, !tbaa !49
  %114 = load ptr, ptr %21, align 8, !tbaa !49
  %115 = call i32 %90(double noundef %91, ptr noundef %94, ptr noundef %97, ptr noundef %100, ptr noundef %103, ptr noundef %104, ptr noundef %105, ptr noundef %106, ptr noundef %107, ptr noundef %108, double noundef %109, ptr noundef %112, ptr noundef %113, ptr noundef %114)
  store i32 %115, ptr %26, align 4, !tbaa !7
  %116 = load i32, ptr %26, align 4, !tbaa !7
  store i32 %116, ptr %11, align 4
  store i32 1, ptr %27, align 4
  br label %117

117:                                              ; preds = %87, %82
  call void @llvm.lifetime.end.p0(i64 4, ptr %26) #5
  call void @llvm.lifetime.end.p0(i64 8, ptr %25) #5
  call void @llvm.lifetime.end.p0(i64 8, ptr %24) #5
  call void @llvm.lifetime.end.p0(i64 8, ptr %23) #5
  call void @llvm.lifetime.end.p0(i64 8, ptr %22) #5
  %118 = load i32, ptr %11, align 4
  ret i32 %118
}